target datalayout = "e-m:e-p270:32:32-p271:32:32-p272:64:64-i64:64-i128:128-f80:128-n8:16:32:64-S128"
target triple = "x86_64-pc-linux-gnu"

%"class.igl::opengl::glfw::Viewer" = type { i32, %"class.std::vector", i64, i32, ptr, %"class.std::vector.1", i64, i32, %"class.std::vector.6", [8 x i8], %"class.Eigen::Quaternion", i32, i32, i32, i32, float, %"class.Eigen::Matrix.13", i8, i8, float, %"class.std::function", %"class.std::function", %"class.std::function", %"class.std::function.23", %"class.std::function.23", %"class.std::function.23", %"class.std::function.25", %"class.std::function.27", %"class.std::function.23", %"class.std::function.27", %"class.std::function.27", ptr, ptr, ptr, ptr, ptr, ptr, ptr, ptr, ptr, ptr, [8 x i8] }
%"class.std::vector" = type { %"struct.std::_Vector_base" }
%"struct.std::_Vector_base" = type { %"struct.std::_Vector_base<igl::opengl::ViewerData, std::allocator<igl::opengl::ViewerData>>::_Vector_impl" }
%"struct.std::_Vector_base<igl::opengl::ViewerData, std::allocator<igl::opengl::ViewerData>>::_Vector_impl" = type { %"struct.std::_Vector_base<igl::opengl::ViewerData, std::allocator<igl::opengl::ViewerData>>::_Vector_impl_data" }
%"struct.std::_Vector_base<igl::opengl::ViewerData, std::allocator<igl::opengl::ViewerData>>::_Vector_impl_data" = type { ptr, ptr, ptr }
%"class.std::vector.1" = type { %"struct.std::_Vector_base.2" }
%"struct.std::_Vector_base.2" = type { %"struct.std::_Vector_base<igl::opengl::ViewerCore, std::allocator<igl::opengl::ViewerCore>>::_Vector_impl" }
%"struct.std::_Vector_base<igl::opengl::ViewerCore, std::allocator<igl::opengl::ViewerCore>>::_Vector_impl" = type { %"struct.std::_Vector_base<igl::opengl::ViewerCore, std::allocator<igl::opengl::ViewerCore>>::_Vector_impl_data" }
%"struct.std::_Vector_base<igl::opengl::ViewerCore, std::allocator<igl::opengl::ViewerCore>>::_Vector_impl_data" = type { ptr, ptr, ptr }
%"class.std::vector.6" = type { %"struct.std::_Vector_base.7" }
%"struct.std::_Vector_base.7" = type { %"struct.std::_Vector_base<igl::opengl::glfw::ViewerPlugin *, std::allocator<igl::opengl::glfw::ViewerPlugin *>>::_Vector_impl" }
%"struct.std::_Vector_base<igl::opengl::glfw::ViewerPlugin *, std::allocator<igl::opengl::glfw::ViewerPlugin *>>::_Vector_impl" = type { %"struct.std::_Vector_base<igl::opengl::glfw::ViewerPlugin *, std::allocator<igl::opengl::glfw::ViewerPlugin *>>::_Vector_impl_data" }
%"struct.std::_Vector_base<igl::opengl::glfw::ViewerPlugin *, std::allocator<igl::opengl::glfw::ViewerPlugin *>>::_Vector_impl_data" = type { ptr, ptr, ptr }
%"class.Eigen::Quaternion" = type { %"class.Eigen::Matrix" }
%"class.Eigen::Matrix" = type { %"class.Eigen::PlainObjectBase" }
%"class.Eigen::PlainObjectBase" = type { %"class.Eigen::DenseStorage" }
%"class.Eigen::DenseStorage" = type { %"struct.Eigen::internal::plain_array" }
%"struct.Eigen::internal::plain_array" = type { [4 x float] }
%"class.Eigen::Matrix.13" = type { %"class.Eigen::PlainObjectBase.14" }
%"class.Eigen::PlainObjectBase.14" = type { %"class.Eigen::DenseStorage.21" }
%"class.Eigen::DenseStorage.21" = type { %"struct.Eigen::internal::plain_array.22" }
%"struct.Eigen::internal::plain_array.22" = type { [3 x float] }
%"class.std::function" = type { %"class.std::_Function_base", ptr }
%"class.std::_Function_base" = type { %"union.std::_Any_data", ptr }
%"union.std::_Any_data" = type { %"union.std::_Nocopy_types" }
%"union.std::_Nocopy_types" = type { { i64, i64 } }
%"class.std::function.25" = type { %"class.std::_Function_base", ptr }
%"class.std::function.23" = type { %"class.std::_Function_base", ptr }
%"class.std::function.27" = type { %"class.std::_Function_base", ptr }
%"class.igl::opengl::ViewerCore" = type { i32, [12 x i8], %"class.Eigen::Matrix", %"class.Eigen::Matrix.13", i8, i8, i32, i32, i32, i32, i32, float, i32, [4 x i8], %"class.Eigen::Quaternion", float, float, i8, %"class.Eigen::Matrix.13", %"class.Eigen::Matrix.13", %"class.Eigen::Matrix.13", %"class.Eigen::Matrix.13", %"class.Eigen::Matrix.13", float, float, float, i8, i8, double, float, [12 x i8], %"class.Eigen::Matrix", %"class.Eigen::Matrix.32", %"class.Eigen::Matrix.32", %"class.Eigen::Matrix.32", %"class.Eigen::Matrix.32", %"class.Eigen::Matrix.32" }
%"class.Eigen::Matrix.32" = type { %"class.Eigen::PlainObjectBase.33" }
%"class.Eigen::PlainObjectBase.33" = type { %"class.Eigen::DenseStorage.40" }
%"class.Eigen::DenseStorage.40" = type { %"struct.Eigen::internal::plain_array.41" }
%"struct.Eigen::internal::plain_array.41" = type { [16 x float] }

; Function Attrs: mustprogress nounwind uwtable
define linkonce_odr dso_local void @_ZN5Eigen9DenseBaseINS_6MatrixIfLi4ELi1ELi0ELi4ELi1EEEEC2Ev(ptr noundef nonnull align 1 dereferenceable(1) %0) unnamed_addr #1 comdat align 2 {
  %2 = alloca ptr, align 8
  store ptr %0, ptr %2, align 8, !tbaa !309
  ret void
}

; Function Attrs: mustprogress uwtable
define linkonce_odr dso_local void @_ZN5Eigen10MatrixBaseINS_6MatrixIfLi4ELi1ELi0ELi4ELi1EEEEC2Ev(ptr noundef nonnull align 1 dereferenceable(1) %0) unnamed_addr #3 comdat align 2 {
  %2 = alloca ptr, align 8
  store ptr %0, ptr %2, align 8, !tbaa !466
  %3 = load ptr, ptr %2, align 8
  call void @_ZN5Eigen9DenseBaseINS_6MatrixIfLi4ELi1ELi0ELi4ELi1EEEEC2Ev(ptr noundef nonnull align 1 dereferenceable(1) %3)
  ret void
}

; Function Attrs: inlinehint mustprogress uwtable
define linkonce_odr dso_local void @_ZN5Eigen15PlainObjectBaseINS_6MatrixIfLi4ELi1ELi0ELi4ELi1EEEEC2ERKS3_(ptr noundef nonnull align 16 dereferenceable(16) %0, ptr noundef nonnull align 16 dereferenceable(16) %1) unnamed_addr #5 comdat align 2 {
  %3 = alloca ptr, align 8
  %4 = alloca ptr, align 8
  store ptr %0, ptr %3, align 8, !tbaa !399
  store ptr %1, ptr %4, align 8, !tbaa !399
  %5 = load ptr, ptr %3, align 8
  call void @_ZN5Eigen10MatrixBaseINS_6MatrixIfLi4ELi1ELi0ELi4ELi1EEEEC2Ev(ptr noundef nonnull align 1 dereferenceable(1) %5)
  %6 = getelementptr inbounds nuw %"class.Eigen::PlainObjectBase", ptr %5, i32 0, i32 0
  %7 = load ptr, ptr %4, align 8, !tbaa !399
  %8 = getelementptr inbounds nuw %"class.Eigen::PlainObjectBase", ptr %7, i32 0, i32 0
  call void @llvm.memcpy.p0.p0.i64(ptr align 16 %6, ptr align 16 %8, i64 16, i1 false), !tbaa.struct !481
  ret void
}

; Function Attrs: mustprogress nounwind uwtable
define linkonce_odr dso_local noundef nonnull align 16 dereferenceable(544) ptr @_ZNKSt6vectorIN3igl6opengl10ViewerCoreESaIS2_EEixEm(ptr noundef nonnull align 8 dereferenceable(24) %0, i64 noundef %1) #1 comdat align 2 {
  %3 = alloca ptr, align 8
  %4 = alloca i64, align 8
  store ptr %0, ptr %3, align 8, !tbaa !71
  store i64 %1, ptr %4, align 8, !tbaa !130
  %5 = load ptr, ptr %3, align 8
  %6 = getelementptr inbounds nuw %"struct.std::_Vector_base.2", ptr %5, i32 0, i32 0
  %7 = getelementptr inbounds nuw %"struct.std::_Vector_base<igl::opengl::ViewerCore, std::allocator<igl::opengl::ViewerCore>>::_Vector_impl_data", ptr %6, i32 0, i32 0
  %8 = load ptr, ptr %7, align 8, !tbaa !126
  %9 = load i64, ptr %4, align 8, !tbaa !130
  %10 = getelementptr inbounds nuw %"class.igl::opengl::ViewerCore", ptr %8, i64 %9
  ret ptr %10
}

; Function Attrs: mustprogress nounwind uwtable
define linkonce_odr dso_local noundef i64 @_ZNKSt6vectorIN3igl6opengl10ViewerCoreESaIS2_EE4sizeEv(ptr noundef nonnull align 8 dereferenceable(24) %0) #1 comdat align 2 {
  %2 = alloca ptr, align 8
  store ptr %0, ptr %2, align 8, !tbaa !71
  %3 = load ptr, ptr %2, align 8
  %4 = getelementptr inbounds nuw %"struct.std::_Vector_base.2", ptr %3, i32 0, i32 0
  %5 = getelementptr inbounds nuw %"struct.std::_Vector_base<igl::opengl::ViewerCore, std::allocator<igl::opengl::ViewerCore>>::_Vector_impl_data", ptr %4, i32 0, i32 1
  %6 = load ptr, ptr %5, align 8, !tbaa !125
  %7 = getelementptr inbounds nuw %"struct.std::_Vector_base.2", ptr %3, i32 0, i32 0
  %8 = getelementptr inbounds nuw %"struct.std::_Vector_base<igl::opengl::ViewerCore, std::allocator<igl::opengl::ViewerCore>>::_Vector_impl_data", ptr %7, i32 0, i32 0
  %9 = load ptr, ptr %8, align 8, !tbaa !126
  %10 = ptrtoint ptr %6 to i64
  %11 = ptrtoint ptr %9 to i64
  %12 = sub i64 %10, %11
  %13 = sdiv exact i64 %12, 544
  ret i64 %13
}

; Function Attrs: inlinehint mustprogress uwtable
define linkonce_odr dso_local void @_ZN5Eigen6MatrixIfLi4ELi1ELi0ELi4ELi1EEC2ERKS1_(ptr noundef nonnull align 16 dereferenceable(16) %0, ptr noundef nonnull align 16 dereferenceable(16) %1) unnamed_addr #5 comdat align 2 {
  %3 = alloca ptr, align 8
  %4 = alloca ptr, align 8
  store ptr %0, ptr %3, align 8, !tbaa !251
  store ptr %1, ptr %4, align 8, !tbaa !251
  %5 = load ptr, ptr %3, align 8
  %6 = load ptr, ptr %4, align 8, !tbaa !251
  call void @_ZN5Eigen15PlainObjectBaseINS_6MatrixIfLi4ELi1ELi0ELi4ELi1EEEEC2ERKS3_(ptr noundef nonnull align 16 dereferenceable(16) %5, ptr noundef nonnull align 16 dereferenceable(16) %6)
  ret void
}

; Function Attrs: mustprogress nounwind uwtable
define linkonce_odr dso_local noundef nonnull align 16 dereferenceable(544) ptr @_ZNSt6vectorIN3igl6opengl10ViewerCoreESaIS2_EEixEm(ptr noundef nonnull align 8 dereferenceable(24) %0, i64 noundef %1) #1 comdat align 2 {
  %3 = alloca ptr, align 8
  %4 = alloca i64, align 8
  store ptr %0, ptr %3, align 8, !tbaa !71
  store i64 %1, ptr %4, align 8, !tbaa !130
  %5 = load ptr, ptr %3, align 8
  %6 = getelementptr inbounds nuw %"struct.std::_Vector_base.2", ptr %5, i32 0, i32 0
  %7 = getelementptr inbounds nuw %"struct.std::_Vector_base<igl::opengl::ViewerCore, std::allocator<igl::opengl::ViewerCore>>::_Vector_impl_data", ptr %6, i32 0, i32 0
  %8 = load ptr, ptr %7, align 8, !tbaa !126
  %9 = load i64, ptr %4, align 8, !tbaa !130
  %10 = getelementptr inbounds nuw %"class.igl::opengl::ViewerCore", ptr %8, i64 %9
  ret ptr %10
}

; Function Attrs: mustprogress nounwind uwtable
define dso_local noundef i64 @_ZNK3igl6opengl4glfw6Viewer10core_indexEi(ptr noundef nonnull align 16 dereferenceable(616) %0, i32 noundef %1) #1 align 2 {
  %3 = alloca i64, align 8
  %4 = alloca ptr, align 8
  %5 = alloca i32, align 4
  %6 = alloca i64, align 8
  %7 = alloca i32, align 4
  store ptr %0, ptr %4, align 8, !tbaa !15
  store i32 %1, ptr %5, align 4, !tbaa !21
  %8 = load ptr, ptr %4, align 8
  call void @llvm.lifetime.start.p0(i64 8, ptr %6) #26
  store i64 0, ptr %6, align 8, !tbaa !130
  br label %9

9:                                                ; preds = %26, %2
  %10 = load i64, ptr %6, align 8, !tbaa !130
  %11 = getelementptr inbounds nuw %"class.igl::opengl::glfw::Viewer", ptr %8, i32 0, i32 5
  %12 = call noundef i64 @_ZNKSt6vectorIN3igl6opengl10ViewerCoreESaIS2_EE4sizeEv(ptr noundef nonnull align 8 dereferenceable(24) %11) #26
  %13 = icmp ult i64 %10, %12
  br i1 %13, label %15, label %14

14:                                               ; preds = %9
  store i32 2, ptr %7, align 4
  br label %29

15:                                               ; preds = %9
  %16 = getelementptr inbounds nuw %"class.igl::opengl::glfw::Viewer", ptr %8, i32 0, i32 5
  %17 = load i64, ptr %6, align 8, !tbaa !130
  %18 = call noundef nonnull align 16 dereferenceable(544) ptr @_ZNKSt6vectorIN3igl6opengl10ViewerCoreESaIS2_EEixEm(ptr noundef nonnull align 8 dereferenceable(24) %16, i64 noundef %17) #26
  %19 = getelementptr inbounds nuw %"class.igl::opengl::ViewerCore", ptr %18, i32 0, i32 0
  %20 = load i32, ptr %19, align 16, !tbaa !111
  %21 = load i32, ptr %5, align 4, !tbaa !21
  %22 = icmp eq i32 %20, %21
  br i1 %22, label %23, label %25

23:                                               ; preds = %15
  %24 = load i64, ptr %6, align 8, !tbaa !130
  store i64 %24, ptr %3, align 8
  store i32 1, ptr %7, align 4
  br label %29

25:                                               ; preds = %15
  br label %26

26:                                               ; preds = %25
  %27 = load i64, ptr %6, align 8, !tbaa !130
  %28 = add i64 %27, 1
  store i64 %28, ptr %6, align 8, !tbaa !130
  br label %9, !llvm.loop !297

29:                                               ; preds = %23, %14
  call void @llvm.lifetime.end.p0(i64 8, ptr %6) #26
  %30 = load i32, ptr %7, align 4
  switch i32 %30, label %34 [
    i32 2, label %31
    i32 1, label %32
  ]

31:                                               ; preds = %29
  store i64 0, ptr %3, align 8
  br label %32

32:                                               ; preds = %31, %29
  %33 = load i64, ptr %3, align 8
  ret i64 %33

34:                                               ; preds = %29
  unreachable
}

; Function Attrs: mustprogress uwtable
define linkonce_odr dso_local void @_ZN5Eigen10QuaternionIfLi0EEC2ERKS1_(ptr noundef nonnull align 16 dereferenceable(16) %0, ptr noundef nonnull align 16 dereferenceable(16) %1) unnamed_addr #3 comdat align 2 {
  %3 = alloca ptr, align 8
  %4 = alloca ptr, align 8
  store ptr %0, ptr %3, align 8, !tbaa !187
  store ptr %1, ptr %4, align 8, !tbaa !187
  %5 = load ptr, ptr %3, align 8
  %6 = getelementptr inbounds nuw %"class.Eigen::Quaternion", ptr %5, i32 0, i32 0
  %7 = load ptr, ptr %4, align 8, !tbaa !187
  %8 = getelementptr inbounds nuw %"class.Eigen::Quaternion", ptr %7, i32 0, i32 0
  call void @_ZN5Eigen6MatrixIfLi4ELi1ELi0ELi4ELi1EEC2ERKS1_(ptr noundef nonnull align 16 dereferenceable(16) %6, ptr noundef nonnull align 16 dereferenceable(16) %8)
  ret void
}

; Function Attrs: mustprogress uwtable
define dso_local noundef nonnull align 16 dereferenceable(544) ptr @_ZN3igl6opengl4glfw6Viewer4coreEj(ptr noundef nonnull align 16 dereferenceable(616) %0, i32 noundef %1) #3 align 2 {
  %3 = alloca ptr, align 8
  %4 = alloca i32, align 4
  %5 = alloca i32, align 4
  store ptr %0, ptr %3, align 8, !tbaa !15
  store i32 %1, ptr %4, align 4, !tbaa !21
  %6 = load ptr, ptr %3, align 8
  call void @llvm.lifetime.start.p0(i64 4, ptr %5) #26
  %7 = load i32, ptr %4, align 4, !tbaa !21
  %8 = icmp eq i32 %7, 0
  br i1 %8, label %9, label %13

9:                                                ; preds = %2
  %10 = getelementptr inbounds nuw %"class.igl::opengl::glfw::Viewer", ptr %6, i32 0, i32 6
  %11 = load i64, ptr %10, align 16, !tbaa !127
  %12 = trunc i64 %11 to i32
  store i32 %12, ptr %5, align 4, !tbaa !21
  br label %17

13:                                               ; preds = %2
  %14 = load i32, ptr %4, align 4, !tbaa !21
  %15 = call noundef i64 @_ZNK3igl6opengl4glfw6Viewer10core_indexEi(ptr noundef nonnull align 16 dereferenceable(616) %6, i32 noundef %14)
  %16 = trunc i64 %15 to i32
  store i32 %16, ptr %5, align 4, !tbaa !21
  br label %17

17:                                               ; preds = %13, %9
  %18 = getelementptr inbounds nuw %"class.igl::opengl::glfw::Viewer", ptr %6, i32 0, i32 5
  %19 = load i32, ptr %5, align 4, !tbaa !21
  %20 = sext i32 %19 to i64
  %21 = call noundef nonnull align 16 dereferenceable(544) ptr @_ZNSt6vectorIN3igl6opengl10ViewerCoreESaIS2_EEixEm(ptr noundef nonnull align 8 dereferenceable(24) %18, i64 noundef %20) #26
  call void @llvm.lifetime.end.p0(i64 4, ptr %5) #26
  ret ptr %21
}

; Function Attrs: mustprogress uwtable
define dso_local void @_ZN3igl6opengl4glfw6Viewer28snap_to_canonical_quaternionEv(ptr noundef nonnull align 16 dereferenceable(616) %0) #3 align 2 {
  %2 = alloca ptr, align 8
  %3 = alloca %"class.Eigen::Quaternion", align 16
  store ptr %0, ptr %2, align 8, !tbaa !15
  %4 = load ptr, ptr %2, align 8
  call void @llvm.lifetime.start.p0(i64 16, ptr %3) #26
  %5 = call noundef nonnull align 16 dereferenceable(544) ptr @_ZN3igl6opengl4glfw6Viewer4coreEj(ptr noundef nonnull align 16 dereferenceable(616) %4, i32 noundef 0)
  %6 = getelementptr inbounds nuw %"class.igl::opengl::ViewerCore", ptr %5, i32 0, i32 14
  call void @_ZN5Eigen10QuaternionIfLi0EEC2ERKS1_(ptr noundef nonnull align 16 dereferenceable(16) %3, ptr noundef nonnull align 16 dereferenceable(16) %6)
  %7 = call noundef nonnull align 16 dereferenceable(544) ptr @_ZN3igl6opengl4glfw6Viewer4coreEj(ptr noundef nonnull align 16 dereferenceable(616) %4, i32 noundef 0)
  %8 = getelementptr inbounds nuw %"class.igl::opengl::ViewerCore", ptr %7, i32 0, i32 14
  %9 = call noundef zeroext i1 @_ZN3igl27snap_to_canonical_view_quatIffEEbRKN5Eigen10QuaternionIT_Li0EEEdRNS2_IT0_Li0EEE(ptr noundef nonnull align 16 dereferenceable(16) %3, double noundef 1.000000e+00, ptr noundef nonnull align 16 dereferenceable(16) %8)
  call void @llvm.lifetime.end.p0(i64 16, ptr %3) #26
  ret void
}