; Function Attrs: mustprogress uwtable
define dso_local void @_ZN3igl6opengl4glfw6Viewer28snap_to_canonical_quaternionEv(ptr noundef nonnull readonly align 16 captures(none) dereferenceable(616) %0) local_unnamed_addr #0 align 2 {
  %2 = alloca %"class.Eigen::Quaternion", align 16
  call void @llvm.lifetime.start.p0(i64 16, ptr nonnull %2) #32
  %3 = getelementptr inbounds nuw i8, ptr %0, i64 80
  %4 = load i64, ptr %3, align 16, !tbaa !64
  %.phi.trans.insert.i = getelementptr inbounds nuw i8, ptr %0, i64 56
  %.pre.i = load ptr, ptr %.phi.trans.insert.i, align 8, !tbaa !63
  %sext.i = shl i64 %4, 32
  %5 = ashr exact i64 %sext.i, 32
  %6 = getelementptr inbounds nuw %"class.igl::opengl::ViewerCore", ptr %.pre.i, i64 %5, i32 14
  call void @llvm.memcpy.p0.p0.i64(ptr noundef nonnull align 16 dereferenceable(16) %2, ptr noundef nonnull align 16 dereferenceable(16) %6, i64 16, i1 false), !tbaa.struct !146
  %7 = call noundef zeroext i1 @_ZN3igl27snap_to_canonical_view_quatIffEEbRKN5Eigen10QuaternionIT_Li0EEEdRNS2_IT0_Li0EEE(ptr noundef nonnull align 16 dereferenceable(16) %2, double noundef 1.000000e+00, ptr noundef nonnull align 16 dereferenceable(16) %6)
  call void @llvm.lifetime.end.p0(i64 16, ptr nonnull %2) #32
  ret void
}